target datalayout = "e-m:e-p270:32:32-p271:32:32-p272:64:64-i64:64-i128:128-f80:128-n8:16:32:64-S128"
target triple = "x86_64-pc-linux-gnu"

%struct.OSSL_TIME = type { i64 }
%struct.ssl_st = type { i32, ptr, ptr, ptr, %struct.CRYPTO_REF_COUNT, ptr, %struct.crypto_ex_data_st }
%struct.CRYPTO_REF_COUNT = type { i32 }
%struct.crypto_ex_data_st = type { ptr, ptr }
%struct.ssl_connection_st = type { %struct.ssl_st, ptr, i32, ptr, ptr, ptr, i32, ptr, i32, i32, i32, i32, %struct.OSSL_TIME, %struct.OSSL_TIME, %struct.ossl_statem_st, i32, ptr, ptr, i64, i64, i64, %struct.ossl_quic_tls_callbacks_st, ptr, ptr, %struct.anon, ptr, ptr, ptr, i32, ptr, %struct.ssl_dane_st, ptr, ptr, ptr, ptr, i32, [64 x i8], [64 x i8], [64 x i8], [64 x i8], [64 x i8], [64 x i8], [64 x i8], [64 x i8], [64 x i8], [64 x i8], [64 x i8], [64 x i8], ptr, [64 x i8], i64, i32, i64, [32 x i8], ptr, ptr, ptr, i64, ptr, [32 x i8], i64, i32, ptr, ptr, i32, i32, ptr, ptr, ptr, ptr, ptr, i64, ptr, ptr, i64, i32, i32, i32, i64, i32, i32, i64, i64, i64, %struct.anon.1, ptr, i32, ptr, ptr, ptr, i32, ptr, ptr, ptr, i32, i32, i32, i32, ptr, i64, i32, ptr, %struct.srp_ctx_st, ptr, %struct.record_layer_st, ptr, ptr, ptr, ptr, i64, i32, i32, i32, i64, i64, i64, ptr, ptr, ptr, ptr, ptr, i64, ptr, i64, ptr, i64 }
%struct.ossl_statem_st = type { i32, i32, i32, i32, i32, i32, i32, i32, i32, i32, i32, i32, i32, ptr, ptr, ptr, i8 }
%struct.ossl_quic_tls_callbacks_st = type { ptr, ptr, ptr, ptr, ptr, ptr }
%struct.anon = type { i64, [32 x i8], [32 x i8], ptr, ptr, i32, i32, i32, i32, [2 x i8], i32, i32, i32, i32, %struct.anon.0, [64 x i8], i64, [64 x i8], i64, i32, i32, ptr, i64, ptr, i64, i32, i8, i8, i16, ptr, i16 }
%struct.anon.0 = type { [128 x i8], i64, [128 x i8], i64, i64, i32, ptr, ptr, [4 x ptr], [4 x i16], i64, i32, ptr, i64, ptr, i64, ptr, ptr, ptr, i32, i64, ptr, i32, ptr, i64, ptr, i64, ptr, i64, ptr, ptr, ptr, ptr, i64, i64, ptr, ptr, i32, i32, i32, i32 }
%struct.ssl_dane_st = type { ptr, ptr, ptr, ptr, ptr, i32, i32, i32, i64 }
%struct.anon.1 = type { [29 x i8], ptr, ptr, ptr, i32, ptr, i16, i32, %struct.anon.2, i32, i32, i64, ptr, i64, ptr, i64, ptr, i64, ptr, i64, ptr, i64, ptr, ptr, ptr, ptr, ptr, ptr, ptr, i64, ptr, i64, i32, i32, i32, i32, ptr, i64, i32, i8, i32, [4 x i32], i32, i8, i8, i8, i8 }
%struct.anon.2 = type { ptr, ptr, ptr, i64 }
%struct.srp_ctx_st = type { ptr, ptr, ptr, ptr, ptr, ptr, ptr, ptr, ptr, ptr, ptr, ptr, ptr, ptr, i32, i64 }
%struct.record_layer_st = type { ptr, ptr, ptr, ptr, ptr, ptr, ptr, ptr, i64, i32, i64, [4 x i8], i64, i64, i8, ptr, i32, ptr, ptr, ptr, i64, i64, i64, i64, [32 x %struct.tls_record_st] }
%struct.tls_record_st = type { ptr, i32, i8, ptr, ptr, i64, i64, i16, [8 x i8] }

@.str.2 = private unnamed_addr constant [24 x i8] c"../openssl/ssl/t1_lib.c\00", align 1
@__func__.SSL_set_tlsext_max_fragment_length = private unnamed_addr constant [35 x i8] c"SSL_set_tlsext_max_fragment_length\00", align 1

; Function Attrs: nounwind uwtable
define i32 @SSL_set_tlsext_max_fragment_length(ptr noundef %0, i8 noundef zeroext %1) #1 {
  %3 = alloca i32, align 4
  %4 = alloca ptr, align 8
  %5 = alloca i8, align 1
  %6 = alloca ptr, align 8
  %7 = alloca i32, align 4
  store ptr %0, ptr %4, align 8, !tbaa !9
  store i8 %1, ptr %5, align 1, !tbaa !161
  call void @llvm.lifetime.start.p0(i64 8, ptr %6) #8
  %8 = load ptr, ptr %4, align 8, !tbaa !9
  %9 = icmp eq ptr %8, null
  br i1 %9, label %10, label %11

10:                                               ; preds = %2
  br label %32

11:                                               ; preds = %2
  %12 = load ptr, ptr %4, align 8, !tbaa !9
  %13 = getelementptr inbounds nuw %struct.ssl_st, ptr %12, i32 0, i32 0
  %14 = load i32, ptr %13, align 8, !tbaa !24
  %15 = icmp eq i32 %14, 0
  br i1 %15, label %16, label %18

16:                                               ; preds = %11
  %17 = load ptr, ptr %4, align 8, !tbaa !9
  br label %30

18:                                               ; preds = %11
  %19 = load ptr, ptr %4, align 8, !tbaa !9
  %20 = getelementptr inbounds nuw %struct.ssl_st, ptr %19, i32 0, i32 0
  %21 = load i32, ptr %20, align 8, !tbaa !24
  %22 = and i32 %21, 128
  %23 = icmp ne i32 %22, 0
  br i1 %23, label %24, label %27

24:                                               ; preds = %18
  %25 = load ptr, ptr %4, align 8, !tbaa !9
  %26 = call ptr @ossl_quic_obj_get0_handshake_layer(ptr noundef %25)
  br label %28

27:                                               ; preds = %18
  br label %28

28:                                               ; preds = %27, %24
  %29 = phi ptr [ %26, %24 ], [ null, %27 ]
  br label %30

30:                                               ; preds = %28, %16
  %31 = phi ptr [ %17, %16 ], [ %29, %28 ]
  br label %32

32:                                               ; preds = %30, %10
  %33 = phi ptr [ null, %10 ], [ %31, %30 ]
  store ptr %33, ptr %6, align 8, !tbaa !25
  %34 = load ptr, ptr %6, align 8, !tbaa !25
  %35 = icmp eq ptr %34, null
  br i1 %35, label %49, label %36

36:                                               ; preds = %32
  %37 = load ptr, ptr %4, align 8, !tbaa !9
  %38 = icmp ne ptr %37, null
  br i1 %38, label %39, label %50

39:                                               ; preds = %36
  %40 = load ptr, ptr %4, align 8, !tbaa !9
  %41 = getelementptr inbounds nuw %struct.ssl_st, ptr %40, i32 0, i32 0
  %42 = load i32, ptr %41, align 8, !tbaa !24
  %43 = and i32 %42, 128
  %44 = icmp ne i32 %43, 0
  br i1 %44, label %45, label %50

45:                                               ; preds = %39
  %46 = load i8, ptr %5, align 1, !tbaa !161
  %47 = zext i8 %46 to i32
  %48 = icmp ne i32 %47, 0
  br i1 %48, label %49, label %50

49:                                               ; preds = %45, %32
  store i32 0, ptr %3, align 4
  store i32 1, ptr %7, align 4
  br label %68

50:                                               ; preds = %45, %39, %36
  %51 = load i8, ptr %5, align 1, !tbaa !161
  %52 = zext i8 %51 to i32
  %53 = icmp ne i32 %52, 0
  br i1 %53, label %54, label %63

54:                                               ; preds = %50
  %55 = load i8, ptr %5, align 1, !tbaa !161
  %56 = zext i8 %55 to i32
  %57 = icmp sge i32 %56, 1
  br i1 %57, label %58, label %62

58:                                               ; preds = %54
  %59 = load i8, ptr %5, align 1, !tbaa !161
  %60 = zext i8 %59 to i32
  %61 = icmp sle i32 %60, 4
  br i1 %61, label %63, label %62

62:                                               ; preds = %58, %54
  call void @ERR_new()
  call void @ERR_set_debug(ptr noundef @.str.2, i32 noundef 4624, ptr noundef @__func__.SSL_set_tlsext_max_fragment_length)
  call void (i32, i32, ptr, ...) @ERR_set_error(i32 noundef 20, i32 noundef 232, ptr noundef null)
  store i32 0, ptr %3, align 4
  store i32 1, ptr %7, align 4
  br label %68

63:                                               ; preds = %58, %50
  %64 = load i8, ptr %5, align 1, !tbaa !161
  %65 = load ptr, ptr %6, align 8, !tbaa !25
  %66 = getelementptr inbounds nuw %struct.ssl_connection_st, ptr %65, i32 0, i32 84
  %67 = getelementptr inbounds nuw %struct.anon.1, ptr %66, i32 0, i32 39
  store i8 %64, ptr %67, align 4, !tbaa !366
  store i32 1, ptr %3, align 4
  store i32 1, ptr %7, align 4
  br label %68

68:                                               ; preds = %63, %62, %49
  call void @llvm.lifetime.end.p0(i64 8, ptr %6) #8
  %69 = load i32, ptr %3, align 4
  ret i32 %69
}