; Function Attrs: nounwind uwtable
define range(i32 0, 2) i32 @SSL_set_tlsext_max_fragment_length(ptr noundef %0, i8 noundef zeroext %1) local_unnamed_addr #2 {
  %3 = icmp eq ptr %0, null
  br i1 %3, label %.thread, label %4

4:                                                ; preds = %2
  %5 = load i32, ptr %0, align 8, !tbaa !19
  %6 = icmp eq i32 %5, 0
  br i1 %6, label %.thread26.thread, label %7

7:                                                ; preds = %4
  %8 = and i32 %5, 128
  %.not = icmp eq i32 %8, 0
  br i1 %.not, label %.thread, label %9

9:                                                ; preds = %7
  %10 = tail call ptr @ossl_quic_obj_get0_handshake_layer(ptr noundef nonnull %0) #14
  %11 = icmp eq ptr %10, null
  br i1 %11, label %.thread, label %.thread26

.thread26:                                        ; preds = %9
  %.pre = load i32, ptr %0, align 8, !tbaa !19
  %12 = and i32 %.pre, 128
  %13 = icmp ne i32 %12, 0
  %14 = icmp ne i8 %1, 0
  %or.cond = and i1 %14, %13
  br i1 %or.cond, label %.thread, label %.thread26.thread

.thread26.thread:                                 ; preds = %4, %.thread26
  %15 = phi ptr [ %10, %.thread26 ], [ %0, %4 ]
  %switch = icmp ult i8 %1, 5
  br i1 %switch, label %17, label %16

16:                                               ; preds = %.thread26.thread
  tail call void @ERR_new() #14
  tail call void @ERR_set_debug(ptr noundef nonnull @.str.2, i32 noundef 4624, ptr noundef nonnull @__func__.SSL_set_tlsext_max_fragment_length) #14
  tail call void (i32, i32, ptr, ...) @ERR_set_error(i32 noundef 20, i32 noundef 232, ptr noundef null) #14
  br label %.thread

17:                                               ; preds = %.thread26.thread
  %18 = getelementptr inbounds nuw i8, ptr %15, i64 2868
  store i8 %1, ptr %18, align 4, !tbaa !306
  br label %.thread

.thread:                                          ; preds = %7, %2, %9, %.thread26, %17, %16
  %.0 = phi i32 [ 1, %17 ], [ 0, %16 ], [ 0, %.thread26 ], [ 0, %9 ], [ 0, %2 ], [ 0, %7 ]
  ret i32 %.0
}